target datalayout = "e-m:e-p270:32:32-p271:32:32-p272:64:64-i64:64-i128:128-f80:128-n8:16:32:64-S128"
target triple = "x86_64-pc-linux-gnu"

%struct.mi_heap_s = type { ptr, ptr, i64, i32, i64, [2 x i64], %struct.mi_random_cxt_s, i64, i64, i64, ptr, i8, i8, [129 x ptr], [75 x %struct.mi_page_queue_s] }
%struct.mi_random_cxt_s = type { [16 x i32], [16 x i32], i32, i8 }
%struct.mi_page_queue_s = type { ptr, ptr, i64 }
%struct.mi_commit_mask_s = type { [8 x i64] }
%struct.mi_segment_s = type { %struct.mi_memid_s, i8, i8, i64, ptr, i64, %struct.mi_commit_mask_s, %struct.mi_commit_mask_s, ptr, i8, i8, i64, i64, i64, i64, ptr, ptr, i64, i64, i32, i64, i64, [513 x %struct.mi_page_s] }
%struct.mi_memid_s = type { %union.anon, i8, i8, i8, i32 }
%union.anon = type { %struct.mi_memid_os_info }
%struct.mi_memid_os_info = type { ptr, i64 }
%struct.mi_page_s = type { i32, i32, i8, i16, i16, %union.mi_page_flags_s, i8, ptr, ptr, i16, i8, i8, i64, ptr, i64, i64, ptr, ptr, [1 x ptr] }
%union.mi_page_flags_s = type { i8 }
%struct.mi_segments_tld_s = type { [36 x %struct.mi_span_queue_s], i64, i64, i64, i64, i64, ptr, ptr }
%struct.mi_span_queue_s = type { ptr, ptr, i64 }

; Function Attrs: nounwind uwtable
define internal ptr @mi_segment_slices_end(ptr noundef %0) #0 {
  %2 = alloca ptr, align 8
  store ptr %0, ptr %2, align 8, !tbaa !19
  %3 = load ptr, ptr %2, align 8, !tbaa !19
  %4 = getelementptr inbounds nuw %struct.mi_segment_s, ptr %3, i32 0, i32 22
  %5 = load ptr, ptr %2, align 8, !tbaa !19
  %6 = getelementptr inbounds nuw %struct.mi_segment_s, ptr %5, i32 0, i32 20
  %7 = load i64, ptr %6, align 8, !tbaa !114
  %8 = getelementptr inbounds nuw [513 x %struct.mi_page_s], ptr %4, i64 0, i64 %7
  ret ptr %8
}

; Function Attrs: inlinehint nounwind uwtable
define internal ptr @mi_slice_first(ptr noundef %0) #2 {
  %2 = alloca ptr, align 8
  %3 = alloca ptr, align 8
  store ptr %0, ptr %2, align 8, !tbaa !21
  call void @llvm.lifetime.start.p0(i64 8, ptr %3) #8
  %4 = load ptr, ptr %2, align 8, !tbaa !21
  %5 = load ptr, ptr %2, align 8, !tbaa !21
  %6 = getelementptr inbounds nuw %struct.mi_page_s, ptr %5, i32 0, i32 1
  %7 = load i32, ptr %6, align 4, !tbaa !113
  %8 = zext i32 %7 to i64
  %9 = sub i64 0, %8
  %10 = getelementptr inbounds i8, ptr %4, i64 %9
  store ptr %10, ptr %3, align 8, !tbaa !21
  %11 = load ptr, ptr %3, align 8, !tbaa !21
  call void @llvm.lifetime.end.p0(i64 8, ptr %3) #8
  ret ptr %11
}

; Function Attrs: inlinehint nounwind uwtable
define internal ptr @mi_slice_to_page(ptr noundef %0) #2 {
  %2 = alloca ptr, align 8
  store ptr %0, ptr %2, align 8, !tbaa !21
  %3 = load ptr, ptr %2, align 8, !tbaa !21
  ret ptr %3
}

; Function Attrs: nounwind uwtable
define internal zeroext i1 @mi_slice_is_used(ptr noundef %0) #0 {
  %2 = alloca ptr, align 8
  store ptr %0, ptr %2, align 8, !tbaa !21
  %3 = load ptr, ptr %2, align 8, !tbaa !21
  %4 = getelementptr inbounds nuw %struct.mi_page_s, ptr %3, i32 0, i32 12
  %5 = load i64, ptr %4, align 8, !tbaa !30
  %6 = icmp ugt i64 %5, 0
  ret i1 %6
}

; Function Attrs: nounwind uwtable
define internal ptr @mi_slices_start_iterate(ptr noundef %0, ptr noundef %1) #0 {
  %3 = alloca ptr, align 8
  %4 = alloca ptr, align 8
  %5 = alloca ptr, align 8
  store ptr %0, ptr %3, align 8, !tbaa !19
  store ptr %1, ptr %4, align 8, !tbaa !97
  call void @llvm.lifetime.start.p0(i64 8, ptr %5) #8
  %6 = load ptr, ptr %3, align 8, !tbaa !19
  %7 = getelementptr inbounds nuw %struct.mi_segment_s, ptr %6, i32 0, i32 22
  %8 = getelementptr inbounds [513 x %struct.mi_page_s], ptr %7, i64 0, i64 0
  store ptr %8, ptr %5, align 8, !tbaa !21
  %9 = load ptr, ptr %3, align 8, !tbaa !19
  %10 = call ptr @mi_segment_slices_end(ptr noundef %9) #9
  %11 = load ptr, ptr %4, align 8, !tbaa !97
  store ptr %10, ptr %11, align 8, !tbaa !21
  %12 = load ptr, ptr %5, align 8, !tbaa !21
  %13 = load ptr, ptr %5, align 8, !tbaa !21
  %14 = getelementptr inbounds nuw %struct.mi_page_s, ptr %13, i32 0, i32 0
  %15 = load i32, ptr %14, align 8, !tbaa !25
  %16 = zext i32 %15 to i64
  %17 = getelementptr inbounds nuw %struct.mi_page_s, ptr %12, i64 %16
  store ptr %17, ptr %5, align 8, !tbaa !21
  %18 = load ptr, ptr %5, align 8, !tbaa !21
  call void @llvm.lifetime.end.p0(i64 8, ptr %5) #8
  ret ptr %18
}

; Function Attrs: inlinehint nounwind uwtable
define internal ptr @_mi_ptr_segment(ptr noundef %0) #2 {
  %2 = alloca ptr, align 8
  %3 = alloca ptr, align 8
  store ptr %0, ptr %2, align 8, !tbaa !95
  call void @llvm.lifetime.start.p0(i64 8, ptr %3) #8
  %4 = load ptr, ptr %2, align 8, !tbaa !95
  %5 = ptrtoint ptr %4 to i64
  %6 = sub i64 %5, 1
  %7 = and i64 %6, -33554432
  %8 = inttoptr i64 %7 to ptr
  store ptr %8, ptr %3, align 8, !tbaa !19
  %9 = load ptr, ptr %3, align 8, !tbaa !19
  %10 = ptrtoint ptr %9 to i64
  %11 = icmp sle i64 %10, 0
  br i1 %11, label %12, label %13

12:                                               ; preds = %1
  br label %15

13:                                               ; preds = %1
  %14 = load ptr, ptr %3, align 8, !tbaa !19
  br label %15

15:                                               ; preds = %13, %12
  %16 = phi ptr [ null, %12 ], [ %14, %13 ]
  call void @llvm.lifetime.end.p0(i64 8, ptr %3) #8
  ret ptr %16
}

; Function Attrs: nounwind uwtable
define internal void @mi_segment_force_abandon(ptr noundef %0, ptr noundef %1) #0 {
  %3 = alloca ptr, align 8
  %4 = alloca ptr, align 8
  %5 = alloca ptr, align 8
  %6 = alloca ptr, align 8
  %7 = alloca ptr, align 8
  %8 = alloca i32, align 4
  store ptr %0, ptr %3, align 8, !tbaa !19
  store ptr %1, ptr %4, align 8, !tbaa !44
  %9 = load ptr, ptr %3, align 8, !tbaa !19
  %10 = getelementptr inbounds nuw %struct.mi_segment_s, ptr %9, i32 0, i32 10
  store i8 1, ptr %10, align 1, !tbaa !54
  call void @llvm.lifetime.start.p0(i64 8, ptr %5) #8
  call void @llvm.lifetime.start.p0(i64 8, ptr %6) #8
  %11 = load ptr, ptr %3, align 8, !tbaa !19
  %12 = call ptr @mi_slices_start_iterate(ptr noundef %11, ptr noundef %5) #9
  store ptr %12, ptr %6, align 8, !tbaa !21
  br label %13

13:                                               ; preds = %44, %2
  %14 = load ptr, ptr %6, align 8, !tbaa !21
  %15 = load ptr, ptr %5, align 8, !tbaa !21
  %16 = icmp ult ptr %14, %15
  br i1 %16, label %17, label %51

17:                                               ; preds = %13
  %18 = load ptr, ptr %6, align 8, !tbaa !21
  %19 = call zeroext i1 @mi_slice_is_used(ptr noundef %18) #9
  br i1 %19, label %20, label %44

20:                                               ; preds = %17
  call void @llvm.lifetime.start.p0(i64 8, ptr %7) #8
  %21 = load ptr, ptr %6, align 8, !tbaa !21
  %22 = call ptr @mi_slice_to_page(ptr noundef %21) #9
  store ptr %22, ptr %7, align 8, !tbaa !21
  %23 = load ptr, ptr %7, align 8, !tbaa !21
  call void @_mi_page_free_collect(ptr noundef %23, i1 noundef zeroext false) #9
  %24 = load ptr, ptr %3, align 8, !tbaa !19
  %25 = getelementptr inbounds nuw %struct.mi_segment_s, ptr %24, i32 0, i32 13
  %26 = load i64, ptr %25, align 8, !tbaa !46
  %27 = load ptr, ptr %3, align 8, !tbaa !19
  %28 = getelementptr inbounds nuw %struct.mi_segment_s, ptr %27, i32 0, i32 11
  %29 = load i64, ptr %28, align 8, !tbaa !47
  %30 = add i64 %29, 1
  %31 = icmp eq i64 %26, %30
  br i1 %31, label %32, label %36

32:                                               ; preds = %20
  %33 = load ptr, ptr %3, align 8, !tbaa !19
  %34 = getelementptr inbounds nuw %struct.mi_segment_s, ptr %33, i32 0, i32 10
  store i8 0, ptr %34, align 1, !tbaa !54
  %35 = load ptr, ptr %7, align 8, !tbaa !21
  call void @_mi_page_force_abandon(ptr noundef %35) #9
  store i32 1, ptr %8, align 4
  br label %41

36:                                               ; preds = %20
  %37 = load ptr, ptr %7, align 8, !tbaa !21
  call void @_mi_page_force_abandon(ptr noundef %37) #9
  %38 = load ptr, ptr %6, align 8, !tbaa !21
  %39 = call ptr @mi_slice_first(ptr noundef %38) #9
  store ptr %39, ptr %6, align 8, !tbaa !21
  br label %40

40:                                               ; preds = %36
  store i32 0, ptr %8, align 4
  br label %41

41:                                               ; preds = %40, %32
  call void @llvm.lifetime.end.p0(i64 8, ptr %7) #8
  %42 = load i32, ptr %8, align 4
  switch i32 %42, label %64 [
    i32 0, label %43
  ]

43:                                               ; preds = %41
  br label %44

44:                                               ; preds = %43, %17
  %45 = load ptr, ptr %6, align 8, !tbaa !21
  %46 = load ptr, ptr %6, align 8, !tbaa !21
  %47 = getelementptr inbounds nuw %struct.mi_page_s, ptr %46, i32 0, i32 0
  %48 = load i32, ptr %47, align 8, !tbaa !25
  %49 = zext i32 %48 to i64
  %50 = getelementptr inbounds nuw %struct.mi_page_s, ptr %45, i64 %49
  store ptr %50, ptr %6, align 8, !tbaa !21
  br label %13, !llvm.loop !127

51:                                               ; preds = %13
  %52 = load ptr, ptr %3, align 8, !tbaa !19
  %53 = getelementptr inbounds nuw %struct.mi_segment_s, ptr %52, i32 0, i32 10
  store i8 0, ptr %53, align 1, !tbaa !54
  %54 = load ptr, ptr %3, align 8, !tbaa !19
  %55 = getelementptr inbounds nuw %struct.mi_segment_s, ptr %54, i32 0, i32 13
  %56 = load i64, ptr %55, align 8, !tbaa !46
  %57 = icmp eq i64 %56, 0
  br i1 %57, label %58, label %61

58:                                               ; preds = %51
  %59 = load ptr, ptr %3, align 8, !tbaa !19
  %60 = load ptr, ptr %4, align 8, !tbaa !44
  call void @mi_segment_free(ptr noundef %59, i1 noundef zeroext false, ptr noundef %60) #9
  br label %63

61:                                               ; preds = %51
  %62 = load ptr, ptr %3, align 8, !tbaa !19
  call void @mi_segment_try_purge(ptr noundef %62, i1 noundef zeroext false) #9
  br label %63

63:                                               ; preds = %61, %58
  store i32 0, ptr %8, align 4
  br label %64

64:                                               ; preds = %63, %41
  call void @llvm.lifetime.end.p0(i64 8, ptr %6) #8
  call void @llvm.lifetime.end.p0(i64 8, ptr %5) #8
  %65 = load i32, ptr %8, align 4
  switch i32 %65, label %67 [
    i32 0, label %66
    i32 1, label %66
  ]

66:                                               ; preds = %64, %64
  ret void

67:                                               ; preds = %64
  unreachable
}

; Function Attrs: inlinehint nounwind uwtable
define internal ptr @_mi_page_segment(ptr noundef %0) #2 {
  %2 = alloca ptr, align 8
  %3 = alloca ptr, align 8
  store ptr %0, ptr %2, align 8, !tbaa !21
  call void @llvm.lifetime.start.p0(i64 8, ptr %3) #8
  %4 = load ptr, ptr %2, align 8, !tbaa !21
  %5 = call ptr @_mi_ptr_segment(ptr noundef %4) #9
  store ptr %5, ptr %3, align 8, !tbaa !19
  %6 = load ptr, ptr %3, align 8, !tbaa !19
  call void @llvm.lifetime.end.p0(i64 8, ptr %3) #8
  ret ptr %6
}

; Function Attrs: inlinehint nounwind uwtable
define internal i64 @mi_page_block_size(ptr noundef %0) #2 {
  %2 = alloca ptr, align 8
  store ptr %0, ptr %2, align 8, !tbaa !21
  %3 = load ptr, ptr %2, align 8, !tbaa !21
  %4 = getelementptr inbounds nuw %struct.mi_page_s, ptr %3, i32 0, i32 12
  %5 = load i64, ptr %4, align 8, !tbaa !30
  ret i64 %5
}

; Function Attrs: nounwind uwtable
define internal void @mi_segments_try_abandon_to_target(ptr noundef %0, i64 noundef %1, ptr noundef %2) #0 {
  %4 = alloca ptr, align 8
  %5 = alloca i64, align 8
  %6 = alloca ptr, align 8
  %7 = alloca i64, align 8
  %8 = alloca i32, align 4
  %9 = alloca i32, align 4
  %10 = alloca ptr, align 8
  %11 = alloca ptr, align 8
  store ptr %0, ptr %4, align 8, !tbaa !63
  store i64 %1, ptr %5, align 8, !tbaa !8
  store ptr %2, ptr %6, align 8, !tbaa !44
  %12 = load i64, ptr %5, align 8, !tbaa !8
  %13 = icmp ule i64 %12, 1
  br i1 %13, label %14, label %15

14:                                               ; preds = %3
  br label %74

15:                                               ; preds = %3
  call void @llvm.lifetime.start.p0(i64 8, ptr %7) #8
  %16 = load i64, ptr %5, align 8, !tbaa !8
  %17 = icmp ugt i64 %16, 4
  br i1 %17, label %18, label %22

18:                                               ; preds = %15
  %19 = load i64, ptr %5, align 8, !tbaa !8
  %20 = mul i64 %19, 3
  %21 = udiv i64 %20, 4
  br label %24

22:                                               ; preds = %15
  %23 = load i64, ptr %5, align 8, !tbaa !8
  br label %24

24:                                               ; preds = %22, %18
  %25 = phi i64 [ %21, %18 ], [ %23, %22 ]
  store i64 %25, ptr %7, align 8, !tbaa !8
  call void @llvm.lifetime.start.p0(i64 4, ptr %8) #8
  store i32 0, ptr %8, align 4, !tbaa !86
  br label %26

26:                                               ; preds = %69, %24
  %27 = load i32, ptr %8, align 4, !tbaa !86
  %28 = icmp slt i32 %27, 64
  br i1 %28, label %29, label %35

29:                                               ; preds = %26
  %30 = load ptr, ptr %6, align 8, !tbaa !44
  %31 = getelementptr inbounds nuw %struct.mi_segments_tld_s, ptr %30, i32 0, i32 1
  %32 = load i64, ptr %31, align 8, !tbaa !87
  %33 = load i64, ptr %7, align 8, !tbaa !8
  %34 = icmp uge i64 %32, %33
  br label %35

35:                                               ; preds = %29, %26
  %36 = phi i1 [ false, %26 ], [ %34, %29 ]
  br i1 %36, label %38, label %37

37:                                               ; preds = %35
  store i32 2, ptr %9, align 4
  br label %72

38:                                               ; preds = %35
  call void @llvm.lifetime.start.p0(i64 8, ptr %10) #8
  %39 = load ptr, ptr %4, align 8, !tbaa !63
  %40 = getelementptr inbounds nuw %struct.mi_heap_s, ptr %39, i32 0, i32 14
  %41 = getelementptr inbounds nuw [75 x %struct.mi_page_queue_s], ptr %40, i64 0, i64 74
  %42 = getelementptr inbounds nuw %struct.mi_page_queue_s, ptr %41, i32 0, i32 0
  %43 = load ptr, ptr %42, align 8, !tbaa !88
  store ptr %43, ptr %10, align 8, !tbaa !21
  br label %44

44:                                               ; preds = %53, %38
  %45 = load ptr, ptr %10, align 8, !tbaa !21
  %46 = icmp ne ptr %45, null
  br i1 %46, label %47, label %51

47:                                               ; preds = %44
  %48 = load ptr, ptr %10, align 8, !tbaa !21
  %49 = call i64 @mi_page_block_size(ptr noundef %48) #9
  %50 = icmp ugt i64 %49, 16777216
  br label %51

51:                                               ; preds = %47, %44
  %52 = phi i1 [ false, %44 ], [ %50, %47 ]
  br i1 %52, label %53, label %57

53:                                               ; preds = %51
  %54 = load ptr, ptr %10, align 8, !tbaa !21
  %55 = getelementptr inbounds nuw %struct.mi_page_s, ptr %54, i32 0, i32 16
  %56 = load ptr, ptr %55, align 8, !tbaa !90
  store ptr %56, ptr %10, align 8, !tbaa !21
  br label %44, !llvm.loop !91

57:                                               ; preds = %51
  %58 = load ptr, ptr %10, align 8, !tbaa !21
  %59 = icmp eq ptr %58, null
  br i1 %59, label %60, label %61

60:                                               ; preds = %57
  store i32 2, ptr %9, align 4
  br label %66

61:                                               ; preds = %57
  call void @llvm.lifetime.start.p0(i64 8, ptr %11) #8
  %62 = load ptr, ptr %10, align 8, !tbaa !21
  %63 = call ptr @_mi_page_segment(ptr noundef %62) #9
  store ptr %63, ptr %11, align 8, !tbaa !19
  %64 = load ptr, ptr %11, align 8, !tbaa !19
  %65 = load ptr, ptr %6, align 8, !tbaa !44
  call void @mi_segment_force_abandon(ptr noundef %64, ptr noundef %65) #9
  call void @llvm.lifetime.end.p0(i64 8, ptr %11) #8
  store i32 0, ptr %9, align 4
  br label %66

66:                                               ; preds = %61, %60
  call void @llvm.lifetime.end.p0(i64 8, ptr %10) #8
  %67 = load i32, ptr %9, align 4
  switch i32 %67, label %72 [
    i32 0, label %68
  ]

68:                                               ; preds = %66
  br label %69

69:                                               ; preds = %68
  %70 = load i32, ptr %8, align 4, !tbaa !86
  %71 = add nsw i32 %70, 1
  store i32 %71, ptr %8, align 4, !tbaa !86
  br label %26, !llvm.loop !92

72:                                               ; preds = %66, %37
  call void @llvm.lifetime.end.p0(i64 4, ptr %8) #8
  br label %73

73:                                               ; preds = %72
  call void @llvm.lifetime.end.p0(i64 8, ptr %7) #8
  br label %74

74:                                               ; preds = %73, %14
  ret void
}