; Function Attrs: nounwind uwtable
define internal fastcc void @mi_segments_try_abandon_to_target(ptr noundef readonly captures(none) %0, i64 noundef %1, ptr noundef captures(none) %2) unnamed_addr #4 {
  %4 = icmp ult i64 %1, 2
  br i1 %4, label %.critedge, label %5

5:                                                ; preds = %3
  %6 = icmp ugt i64 %1, 4
  %7 = mul i64 %1, 3
  %8 = lshr i64 %7, 2
  %9 = select i1 %6, i64 %8, i64 %1
  %10 = getelementptr inbounds nuw i8, ptr %2, i64 864
  %11 = getelementptr inbounds nuw i8, ptr %0, i64 3040
  br label %12

12:                                               ; preds = %5, %mi_segment_force_abandon.exit
  %.031 = phi i32 [ 0, %5 ], [ %57, %mi_segment_force_abandon.exit ]
  %13 = load i64, ptr %10, align 8, !tbaa !57
  %.not = icmp ult i64 %13, %9
  br i1 %.not, label %.critedge, label %14

14:                                               ; preds = %12
  %.01827 = load ptr, ptr %11, align 8, !tbaa !89
  %cond28 = icmp eq ptr %.01827, null
  br i1 %cond28, label %.critedge, label %.lr.ph

.lr.ph:                                           ; preds = %14, %17
  %.01829 = phi ptr [ %.018, %17 ], [ %.01827, %14 ]
  %15 = getelementptr i8, ptr %.01829, i64 40
  %.018.val = load i64, ptr %15, align 8, !tbaa !14
  %16 = icmp ugt i64 %.018.val, 16777216
  br i1 %16, label %17, label %.critedge2

17:                                               ; preds = %.lr.ph
  %18 = getelementptr inbounds nuw i8, ptr %.01829, i64 72
  %.018 = load ptr, ptr %18, align 8, !tbaa !89
  %cond = icmp eq ptr %.018, null
  br i1 %cond, label %.critedge, label %.lr.ph, !llvm.loop !90

.critedge2:                                       ; preds = %.lr.ph
  %magicptr.le = ptrtoint ptr %.01829 to i64
  %19 = add i64 %magicptr.le, -1
  %20 = and i64 %19, -33554432
  %21 = inttoptr i64 %20 to ptr
  %22 = icmp slt i64 %19, 33554432
  %23 = select i1 %22, ptr null, ptr %21
  %24 = getelementptr inbounds nuw i8, ptr %23, i64 193
  store i8 1, ptr %24, align 1, !tbaa !45
  %25 = getelementptr inbounds nuw i8, ptr %23, i64 288
  %26 = getelementptr inbounds nuw i8, ptr %21, i64 272
  %27 = load i64, ptr %26, align 16, !tbaa !46
  %.idx24.i = mul nuw nsw i64 %27, 96
  %28 = getelementptr inbounds nuw i8, ptr %25, i64 %.idx24.i
  %29 = load i32, ptr %25, align 32, !tbaa !22
  %30 = zext i32 %29 to i64
  %31 = icmp ugt i64 %27, %30
  br i1 %31, label %.lr.ph.i, label %._crit_edge.i

.lr.ph.i:                                         ; preds = %.critedge2
  %.idx.i = mul nuw nsw i64 %30, 96
  %32 = getelementptr inbounds nuw i8, ptr %25, i64 %.idx.i
  %33 = getelementptr inbounds nuw i8, ptr %21, i64 216
  %34 = getelementptr inbounds nuw i8, ptr %21, i64 200
  br label %35

35:                                               ; preds = %47, %.lr.ph.i
  %.01923.i = phi ptr [ %32, %.lr.ph.i ], [ %50, %47 ]
  %36 = getelementptr i8, ptr %.01923.i, i64 40
  %.019.val.i = load i64, ptr %36, align 8, !tbaa !14
  %.not21.i = icmp eq i64 %.019.val.i, 0
  br i1 %.not21.i, label %47, label %37

37:                                               ; preds = %35
  tail call void @_mi_page_free_collect(ptr noundef nonnull %.01923.i, i1 noundef zeroext false) #11
  %38 = load i64, ptr %33, align 8, !tbaa !37
  %39 = load i64, ptr %34, align 8, !tbaa !38
  %40 = add i64 %39, 1
  %.not.i = icmp eq i64 %38, %40
  br i1 %.not.i, label %.thread.i, label %41

.thread.i:                                        ; preds = %37
  store i8 0, ptr %24, align 1, !tbaa !45
  tail call void @_mi_page_force_abandon(ptr noundef nonnull %.01923.i) #11
  br label %mi_segment_force_abandon.exit

41:                                               ; preds = %37
  tail call void @_mi_page_force_abandon(ptr noundef nonnull %.01923.i) #11
  %42 = getelementptr inbounds nuw i8, ptr %.01923.i, i64 4
  %43 = load i32, ptr %42, align 4, !tbaa !91
  %44 = zext i32 %43 to i64
  %45 = sub nsw i64 0, %44
  %46 = getelementptr inbounds i8, ptr %.01923.i, i64 %45
  br label %47

47:                                               ; preds = %41, %35
  %.1.i = phi ptr [ %46, %41 ], [ %.01923.i, %35 ]
  %48 = load i32, ptr %.1.i, align 8, !tbaa !22
  %49 = zext i32 %48 to i64
  %50 = getelementptr inbounds nuw %struct.mi_page_s, ptr %.1.i, i64 %49
  %51 = icmp ult ptr %50, %28
  br i1 %51, label %35, label %._crit_edge.i, !llvm.loop !92

._crit_edge.i:                                    ; preds = %47, %.critedge2
  store i8 0, ptr %24, align 1, !tbaa !45
  %52 = getelementptr inbounds nuw i8, ptr %21, i64 216
  %53 = load i64, ptr %52, align 8, !tbaa !37
  %54 = icmp eq i64 %53, 0
  br i1 %54, label %55, label %56

55:                                               ; preds = %._crit_edge.i
  tail call fastcc void @mi_segment_free(ptr noundef nonnull %21, ptr noundef %2) #10
  br label %mi_segment_force_abandon.exit

56:                                               ; preds = %._crit_edge.i
  tail call fastcc void @mi_segment_try_purge(ptr noundef nonnull %21, i1 noundef zeroext false) #10
  br label %mi_segment_force_abandon.exit

mi_segment_force_abandon.exit:                    ; preds = %.thread.i, %55, %56
  %57 = add nuw nsw i32 %.031, 1
  %exitcond.not = icmp eq i32 %57, 64
  br i1 %exitcond.not, label %.critedge, label %12, !llvm.loop !93

.critedge:                                        ; preds = %mi_segment_force_abandon.exit, %12, %14, %17, %3
  ret void
}